target datalayout = "e-m:e-p270:32:32-p271:32:32-p272:64:64-i64:64-i128:128-f80:128-n8:16:32:64-S128"
target triple = "x86_64-pc-linux-gnu"

%"class.draco::Metadata" = type { %"class.std::map", %"class.std::map.0" }
%"class.std::map" = type { %"class.std::_Rb_tree" }
%"class.std::_Rb_tree" = type { %"struct.std::_Rb_tree<std::__cxx11::basic_string<char>, std::pair<const std::__cxx11::basic_string<char>, draco::EntryValue>, std::_Select1st<std::pair<const std::__cxx11::basic_string<char>, draco::EntryValue>>, std::less<std::__cxx11::basic_string<char>>>::_Rb_tree_impl" }
%"struct.std::_Rb_tree<std::__cxx11::basic_string<char>, std::pair<const std::__cxx11::basic_string<char>, draco::EntryValue>, std::_Select1st<std::pair<const std::__cxx11::basic_string<char>, draco::EntryValue>>, std::less<std::__cxx11::basic_string<char>>>::_Rb_tree_impl" = type { [8 x i8], %"struct.std::_Rb_tree_header" }
%"struct.std::_Rb_tree_header" = type { %"struct.std::_Rb_tree_node_base", i64 }
%"struct.std::_Rb_tree_node_base" = type { i32, ptr, ptr, ptr }
%"class.std::map.0" = type { %"class.std::_Rb_tree.1" }
%"class.std::_Rb_tree.1" = type { %"struct.std::_Rb_tree<std::__cxx11::basic_string<char>, std::pair<const std::__cxx11::basic_string<char>, std::unique_ptr<draco::Metadata>>, std::_Select1st<std::pair<const std::__cxx11::basic_string<char>, std::unique_ptr<draco::Metadata>>>, std::less<std::__cxx11::basic_string<char>>>::_Rb_tree_impl" }
%"struct.std::_Rb_tree<std::__cxx11::basic_string<char>, std::pair<const std::__cxx11::basic_string<char>, std::unique_ptr<draco::Metadata>>, std::_Select1st<std::pair<const std::__cxx11::basic_string<char>, std::unique_ptr<draco::Metadata>>>, std::less<std::__cxx11::basic_string<char>>>::_Rb_tree_impl" = type { [8 x i8], %"struct.std::_Rb_tree_header" }
%"class.draco::AttributeMetadata" = type <{ %"class.draco::Metadata", i32, [4 x i8] }>

; Function Attrs: mustprogress nounwind uwtable
define linkonce_odr noundef i32 @_ZNK5draco17AttributeMetadata13att_unique_idEv(ptr noundef nonnull align 8 dereferenceable(100) %0) #6 comdat align 2 {
  %2 = alloca ptr, align 8
  store ptr %0, ptr %2, align 8, !tbaa !48
  %3 = load ptr, ptr %2, align 8
  %4 = getelementptr inbounds nuw %"class.draco::AttributeMetadata", ptr %3, i32 0, i32 1
  %5 = load i32, ptr %4, align 8, !tbaa !50
  ret i32 %5
}

; Function Attrs: mustprogress uwtable
define noundef zeroext i1 @_ZN5draco15MetadataEncoder23EncodeAttributeMetadataEPNS_13EncoderBufferEPKNS_17AttributeMetadataE(ptr noundef nonnull align 1 dereferenceable(1) %0, ptr noundef %1, ptr noundef %2) #4 align 2 {
  %4 = alloca i1, align 1
  %5 = alloca ptr, align 8
  %6 = alloca ptr, align 8
  %7 = alloca ptr, align 8
  store ptr %0, ptr %5, align 8, !tbaa !3
  store ptr %1, ptr %6, align 8, !tbaa !8
  store ptr %2, ptr %7, align 8, !tbaa !48
  %8 = load ptr, ptr %5, align 8
  %9 = load ptr, ptr %7, align 8, !tbaa !48
  %10 = icmp ne ptr %9, null
  br i1 %10, label %12, label %11

11:                                               ; preds = %3
  store i1 false, ptr %4, align 1
  br label %20

12:                                               ; preds = %3
  %13 = load ptr, ptr %7, align 8, !tbaa !48
  %14 = call noundef i32 @_ZNK5draco17AttributeMetadata13att_unique_idEv(ptr noundef nonnull align 8 dereferenceable(100) %13)
  %15 = load ptr, ptr %6, align 8, !tbaa !8
  %16 = call noundef zeroext i1 @_ZN5draco12EncodeVarintIjEEbT_PNS_13EncoderBufferE(i32 noundef %14, ptr noundef %15)
  %17 = load ptr, ptr %6, align 8, !tbaa !8
  %18 = load ptr, ptr %7, align 8, !tbaa !48
  %19 = call noundef zeroext i1 @_ZN5draco15MetadataEncoder14EncodeMetadataEPNS_13EncoderBufferEPKNS_8MetadataE(ptr noundef nonnull align 1 dereferenceable(1) %8, ptr noundef %17, ptr noundef %18)
  store i1 true, ptr %4, align 1
  br label %20

20:                                               ; preds = %12, %11
  %21 = load i1, ptr %4, align 1
  ret i1 %21
}