; Function Attrs: mustprogress uwtable
define noundef zeroext i1 @_ZN5draco15MetadataEncoder23EncodeAttributeMetadataEPNS_13EncoderBufferEPKNS_17AttributeMetadataE(ptr noundef nonnull readnone align 1 captures(none) dereferenceable(1) %0, ptr noundef %1, ptr noundef captures(address) %2) local_unnamed_addr #3 align 2 {
  %.not = icmp ne ptr %2, null
  br i1 %.not, label %4, label %9

4:                                                ; preds = %3
  %5 = getelementptr inbounds nuw i8, ptr %2, i64 96
  %6 = load i32, ptr %5, align 8, !tbaa !39
  %7 = tail call noundef zeroext i1 @_ZN5draco12EncodeVarintIjEEbT_PNS_13EncoderBufferE(i32 noundef %6, ptr noundef %1)
  %8 = tail call noundef zeroext i1 @_ZN5draco15MetadataEncoder14EncodeMetadataEPNS_13EncoderBufferEPKNS_8MetadataE(ptr noundef nonnull align 1 dereferenceable(1) %0, ptr noundef %1, ptr noundef nonnull %2)
  br label %9

9:                                                ; preds = %3, %4
  ret i1 %.not
}